target datalayout = "e-m:e-p270:32:32-p271:32:32-p272:64:64-i64:64-i128:128-f80:128-n8:16:32:64-S128"
target triple = "x86_64-pc-linux-gnu"

%struct.csnStream_t = type { i32, i32, ptr }
%struct.Seg3A_LAI_t = type { i16, i16, i16, i8, i16 }

@hf_seg3a_lai_mcc = internal global i32 0, align 4
@hf_seg3a_lai_mnc = internal global i32 0, align 4
@hf_seg3a_lai_lac = internal global i32 0, align 4
@hf_seg3a_lai_msc_id = internal global i32 0, align 4
@hf_seg3a_lai_spot_beam_id = internal global i32 0, align 4
@.str.314 = private unnamed_addr constant [3 x i8] c"%d\00", align 1
@.str.315 = private unnamed_addr constant [7 x i8] c"0x%04x\00", align 1

; Function Attrs: null_pointer_is_valid sspstrong uwtable
define internal signext i16 @Seg3A_LAI_Dissector(ptr noundef %0, ptr noundef %1, ptr noundef %2, ptr noundef %3, i32 noundef %4) #0 {
  %6 = alloca i16, align 2
  %7 = alloca ptr, align 8
  %8 = alloca ptr, align 8
  %9 = alloca ptr, align 8
  %10 = alloca ptr, align 8
  %11 = alloca i32, align 4
  %12 = alloca ptr, align 8
  %13 = alloca ptr, align 8
  %14 = alloca ptr, align 8
  %15 = alloca [5 x i8], align 1
  %16 = alloca i32, align 4
  %17 = alloca i32, align 4
  store ptr %0, ptr %7, align 8
  store ptr %1, ptr %8, align 8
  store ptr %2, ptr %9, align 8
  store ptr %3, ptr %10, align 8
  store i32 %4, ptr %11, align 4
  call void @llvm.lifetime.start.p0(i64 8, ptr %12) #5
  %18 = load ptr, ptr %10, align 8
  store ptr %18, ptr %12, align 8
  call void @llvm.lifetime.start.p0(i64 8, ptr %13) #5
  call void @llvm.lifetime.start.p0(i64 8, ptr %14) #5
  call void @llvm.lifetime.start.p0(i64 5, ptr %15) #5
  call void @llvm.lifetime.start.p0(i64 4, ptr %16) #5
  %19 = load ptr, ptr %8, align 8
  %20 = getelementptr inbounds nuw %struct.csnStream_t, ptr %19, i32 0, i32 0
  %21 = load i32, ptr %20, align 8
  %22 = icmp slt i32 %21, 40
  br i1 %22, label %23, label %24

23:                                               ; preds = %5
  store i16 -1, ptr %6, align 2
  store i32 1, ptr %17, align 4
  br label %196

24:                                               ; preds = %5
  store i32 0, ptr %16, align 4
  br label %25

25:                                               ; preds = %40, %24
  %26 = load i32, ptr %16, align 4
  %27 = icmp slt i32 %26, 5
  br i1 %27, label %28, label %43

28:                                               ; preds = %25
  %29 = load ptr, ptr %9, align 8
  %30 = load ptr, ptr %8, align 8
  %31 = getelementptr inbounds nuw %struct.csnStream_t, ptr %30, i32 0, i32 1
  %32 = load i32, ptr %31, align 4
  %33 = load i32, ptr %16, align 4
  %34 = shl i32 %33, 3
  %35 = add i32 %32, %34
  %36 = call zeroext i8 @tvb_get_bits8(ptr noundef %29, i32 noundef %35, i32 noundef 8)
  %37 = load i32, ptr %16, align 4
  %38 = sext i32 %37 to i64
  %39 = getelementptr [5 x i8], ptr %15, i64 0, i64 %38
  store i8 %36, ptr %39, align 1
  br label %40

40:                                               ; preds = %28
  %41 = load i32, ptr %16, align 4
  %42 = add i32 %41, 1
  store i32 %42, ptr %16, align 4
  br label %25, !llvm.loop !8

43:                                               ; preds = %25
  %44 = getelementptr [5 x i8], ptr %15, i64 0, i64 0
  %45 = load i8, ptr %44, align 1
  %46 = zext i8 %45 to i32
  %47 = and i32 %46, 15
  %48 = mul i32 %47, 100
  %49 = getelementptr [5 x i8], ptr %15, i64 0, i64 0
  %50 = load i8, ptr %49, align 1
  %51 = zext i8 %50 to i32
  %52 = and i32 %51, 240
  %53 = ashr i32 %52, 4
  %54 = mul i32 %53, 10
  %55 = add i32 %48, %54
  %56 = getelementptr [5 x i8], ptr %15, i64 0, i64 1
  %57 = load i8, ptr %56, align 1
  %58 = zext i8 %57 to i32
  %59 = and i32 %58, 15
  %60 = add i32 %55, %59
  %61 = trunc i32 %60 to i16
  %62 = load ptr, ptr %12, align 8
  %63 = getelementptr inbounds nuw %struct.Seg3A_LAI_t, ptr %62, i32 0, i32 0
  store i16 %61, ptr %63, align 2
  %64 = getelementptr [5 x i8], ptr %15, i64 0, i64 2
  %65 = load i8, ptr %64, align 1
  %66 = zext i8 %65 to i32
  %67 = and i32 %66, 15
  %68 = mul i32 %67, 10
  %69 = getelementptr [5 x i8], ptr %15, i64 0, i64 2
  %70 = load i8, ptr %69, align 1
  %71 = zext i8 %70 to i32
  %72 = and i32 %71, 240
  %73 = ashr i32 %72, 4
  %74 = add i32 %68, %73
  %75 = trunc i32 %74 to i16
  %76 = load ptr, ptr %12, align 8
  %77 = getelementptr inbounds nuw %struct.Seg3A_LAI_t, ptr %76, i32 0, i32 1
  store i16 %75, ptr %77, align 2
  %78 = getelementptr [5 x i8], ptr %15, i64 0, i64 3
  %79 = load i8, ptr %78, align 1
  %80 = zext i8 %79 to i32
  %81 = shl i32 %80, 8
  %82 = getelementptr [5 x i8], ptr %15, i64 0, i64 4
  %83 = load i8, ptr %82, align 1
  %84 = zext i8 %83 to i32
  %85 = or i32 %81, %84
  %86 = trunc i32 %85 to i16
  %87 = load ptr, ptr %12, align 8
  %88 = getelementptr inbounds nuw %struct.Seg3A_LAI_t, ptr %87, i32 0, i32 2
  store i16 %86, ptr %88, align 2
  %89 = load ptr, ptr %12, align 8
  %90 = getelementptr inbounds nuw %struct.Seg3A_LAI_t, ptr %89, i32 0, i32 2
  %91 = load i16, ptr %90, align 2
  %92 = zext i16 %91 to i32
  %93 = ashr i32 %92, 10
  %94 = and i32 %93, 63
  %95 = trunc i32 %94 to i8
  %96 = load ptr, ptr %12, align 8
  %97 = getelementptr inbounds nuw %struct.Seg3A_LAI_t, ptr %96, i32 0, i32 3
  store i8 %95, ptr %97, align 2
  %98 = load ptr, ptr %12, align 8
  %99 = getelementptr inbounds nuw %struct.Seg3A_LAI_t, ptr %98, i32 0, i32 2
  %100 = load i16, ptr %99, align 2
  %101 = zext i16 %100 to i32
  %102 = and i32 %101, 1023
  %103 = trunc i32 %102 to i16
  %104 = load ptr, ptr %12, align 8
  %105 = getelementptr inbounds nuw %struct.Seg3A_LAI_t, ptr %104, i32 0, i32 4
  store i16 %103, ptr %105, align 2
  %106 = load ptr, ptr %7, align 8
  %107 = load i32, ptr @hf_seg3a_lai_mcc, align 4
  %108 = load ptr, ptr %9, align 8
  %109 = load ptr, ptr %8, align 8
  %110 = getelementptr inbounds nuw %struct.csnStream_t, ptr %109, i32 0, i32 1
  %111 = load i32, ptr %110, align 4
  %112 = load ptr, ptr %12, align 8
  %113 = getelementptr inbounds nuw %struct.Seg3A_LAI_t, ptr %112, i32 0, i32 0
  %114 = load i16, ptr %113, align 2
  %115 = zext i16 %114 to i32
  %116 = load ptr, ptr %12, align 8
  %117 = getelementptr inbounds nuw %struct.Seg3A_LAI_t, ptr %116, i32 0, i32 0
  %118 = load i16, ptr %117, align 2
  %119 = zext i16 %118 to i32
  %120 = call ptr (ptr, i32, ptr, i32, i32, i32, i32, ptr, ...) @proto_tree_add_uint_bits_format_value(ptr noundef %106, i32 noundef %107, ptr noundef %108, i32 noundef %111, i32 noundef 16, i32 noundef %115, i32 noundef 0, ptr noundef @.str.314, i32 noundef %119)
  %121 = load ptr, ptr %7, align 8
  %122 = load i32, ptr @hf_seg3a_lai_mnc, align 4
  %123 = load ptr, ptr %9, align 8
  %124 = load ptr, ptr %8, align 8
  %125 = getelementptr inbounds nuw %struct.csnStream_t, ptr %124, i32 0, i32 1
  %126 = load i32, ptr %125, align 4
  %127 = add i32 %126, 16
  %128 = load ptr, ptr %12, align 8
  %129 = getelementptr inbounds nuw %struct.Seg3A_LAI_t, ptr %128, i32 0, i32 1
  %130 = load i16, ptr %129, align 2
  %131 = zext i16 %130 to i32
  %132 = load ptr, ptr %12, align 8
  %133 = getelementptr inbounds nuw %struct.Seg3A_LAI_t, ptr %132, i32 0, i32 1
  %134 = load i16, ptr %133, align 2
  %135 = zext i16 %134 to i32
  %136 = call ptr (ptr, i32, ptr, i32, i32, i32, i32, ptr, ...) @proto_tree_add_uint_bits_format_value(ptr noundef %121, i32 noundef %122, ptr noundef %123, i32 noundef %127, i32 noundef 8, i32 noundef %131, i32 noundef 0, ptr noundef @.str.314, i32 noundef %135)
  %137 = load ptr, ptr %7, align 8
  %138 = load i32, ptr @hf_seg3a_lai_lac, align 4
  %139 = load ptr, ptr %9, align 8
  %140 = load ptr, ptr %8, align 8
  %141 = getelementptr inbounds nuw %struct.csnStream_t, ptr %140, i32 0, i32 1
  %142 = load i32, ptr %141, align 4
  %143 = add i32 %142, 24
  %144 = load ptr, ptr %12, align 8
  %145 = getelementptr inbounds nuw %struct.Seg3A_LAI_t, ptr %144, i32 0, i32 2
  %146 = load i16, ptr %145, align 2
  %147 = zext i16 %146 to i32
  %148 = load ptr, ptr %12, align 8
  %149 = getelementptr inbounds nuw %struct.Seg3A_LAI_t, ptr %148, i32 0, i32 2
  %150 = load i16, ptr %149, align 2
  %151 = zext i16 %150 to i32
  %152 = call ptr (ptr, i32, ptr, i32, i32, i32, i32, ptr, ...) @proto_tree_add_uint_bits_format_value(ptr noundef %137, i32 noundef %138, ptr noundef %139, i32 noundef %143, i32 noundef 16, i32 noundef %147, i32 noundef 0, ptr noundef @.str.315, i32 noundef %151)
  store ptr %152, ptr %13, align 8
  %153 = load ptr, ptr %13, align 8
  %154 = load i32, ptr %11, align 4
  %155 = call ptr @proto_item_add_subtree(ptr noundef %153, i32 noundef %154)
  store ptr %155, ptr %14, align 8
  %156 = load ptr, ptr %14, align 8
  %157 = load i32, ptr @hf_seg3a_lai_msc_id, align 4
  %158 = load ptr, ptr %9, align 8
  %159 = load ptr, ptr %8, align 8
  %160 = getelementptr inbounds nuw %struct.csnStream_t, ptr %159, i32 0, i32 1
  %161 = load i32, ptr %160, align 4
  %162 = add i32 %161, 24
  %163 = load ptr, ptr %12, align 8
  %164 = getelementptr inbounds nuw %struct.Seg3A_LAI_t, ptr %163, i32 0, i32 3
  %165 = load i8, ptr %164, align 2
  %166 = zext i8 %165 to i32
  %167 = load ptr, ptr %12, align 8
  %168 = getelementptr inbounds nuw %struct.Seg3A_LAI_t, ptr %167, i32 0, i32 3
  %169 = load i8, ptr %168, align 2
  %170 = zext i8 %169 to i32
  %171 = call ptr (ptr, i32, ptr, i32, i32, i32, i32, ptr, ...) @proto_tree_add_uint_bits_format_value(ptr noundef %156, i32 noundef %157, ptr noundef %158, i32 noundef %162, i32 noundef 6, i32 noundef %166, i32 noundef 0, ptr noundef @.str.314, i32 noundef %170)
  %172 = load ptr, ptr %14, align 8
  %173 = load i32, ptr @hf_seg3a_lai_spot_beam_id, align 4
  %174 = load ptr, ptr %9, align 8
  %175 = load ptr, ptr %8, align 8
  %176 = getelementptr inbounds nuw %struct.csnStream_t, ptr %175, i32 0, i32 1
  %177 = load i32, ptr %176, align 4
  %178 = add i32 %177, 30
  %179 = load ptr, ptr %12, align 8
  %180 = getelementptr inbounds nuw %struct.Seg3A_LAI_t, ptr %179, i32 0, i32 4
  %181 = load i16, ptr %180, align 2
  %182 = zext i16 %181 to i32
  %183 = load ptr, ptr %12, align 8
  %184 = getelementptr inbounds nuw %struct.Seg3A_LAI_t, ptr %183, i32 0, i32 4
  %185 = load i16, ptr %184, align 2
  %186 = zext i16 %185 to i32
  %187 = call ptr (ptr, i32, ptr, i32, i32, i32, i32, ptr, ...) @proto_tree_add_uint_bits_format_value(ptr noundef %172, i32 noundef %173, ptr noundef %174, i32 noundef %178, i32 noundef 10, i32 noundef %182, i32 noundef 0, ptr noundef @.str.314, i32 noundef %186)
  %188 = load ptr, ptr %8, align 8
  %189 = getelementptr inbounds nuw %struct.csnStream_t, ptr %188, i32 0, i32 0
  %190 = load i32, ptr %189, align 8
  %191 = sub i32 %190, 40
  store i32 %191, ptr %189, align 8
  %192 = load ptr, ptr %8, align 8
  %193 = getelementptr inbounds nuw %struct.csnStream_t, ptr %192, i32 0, i32 1
  %194 = load i32, ptr %193, align 4
  %195 = add i32 %194, 40
  store i32 %195, ptr %193, align 4
  store i16 0, ptr %6, align 2
  store i32 1, ptr %17, align 4
  br label %196

196:                                              ; preds = %43, %23
  call void @llvm.lifetime.end.p0(i64 4, ptr %16) #5
  call void @llvm.lifetime.end.p0(i64 5, ptr %15) #5
  call void @llvm.lifetime.end.p0(i64 8, ptr %14) #5
  call void @llvm.lifetime.end.p0(i64 8, ptr %13) #5
  call void @llvm.lifetime.end.p0(i64 8, ptr %12) #5
  %197 = load i16, ptr %6, align 2
  ret i16 %197
}